target datalayout = "e-m:e-p270:32:32-p271:32:32-p272:64:64-i64:64-i128:128-f80:128-n8:16:32:64-S128"
target triple = "x86_64-pc-linux-gnu"

%struct._packet_info = type { ptr, ptr, i32, i32, %struct.nstime_t, %struct.nstime_t, %struct.nstime_t, i8, ptr, ptr, ptr, ptr, %struct._address, %struct._address, %struct._address, %struct._address, %struct._address, %struct._address, i32, ptr, i8, [3 x i8], %struct.anon, i32, i32, i32, i32, ptr, i8, ptr, ptr, i16, i16, i32, i32, i16, i32, i32, ptr, ptr, ptr, i8, i8, i16, i16, i16, i32, i16, i16, ptr, ptr, ptr, ptr, ptr, i32, i32 }
%struct.nstime_t = type { i64, i32 }
%struct._address = type { i32, i32, ptr, ptr }
%struct.anon = type { i8, [3 x i8] }

; Function Attrs: nounwind null_pointer_is_valid sspstrong uwtable
define internal i32 @exp_pdu_data_ip_size(ptr noundef %0) #0 {
  %2 = alloca i32, align 4
  %3 = alloca ptr, align 8
  store ptr %0, ptr %3, align 8
  %4 = load ptr, ptr %3, align 8
  %5 = getelementptr inbounds nuw %struct._address, ptr %4, i32 0, i32 0
  %6 = load i32, ptr %5, align 8
  %7 = icmp eq i32 %6, 2
  br i1 %7, label %8, label %9

8:                                                ; preds = %1
  store i32 8, ptr %2, align 4
  br label %17

9:                                                ; preds = %1
  %10 = load ptr, ptr %3, align 8
  %11 = getelementptr inbounds nuw %struct._address, ptr %10, i32 0, i32 0
  %12 = load i32, ptr %11, align 8
  %13 = icmp eq i32 %12, 3
  br i1 %13, label %14, label %15

14:                                               ; preds = %9
  store i32 20, ptr %2, align 4
  br label %17

15:                                               ; preds = %9
  br label %16

16:                                               ; preds = %15
  store i32 0, ptr %2, align 4
  br label %17

17:                                               ; preds = %16, %14, %8
  %18 = load i32, ptr %2, align 4
  ret i32 %18
}

; Function Attrs: null_pointer_is_valid sspstrong uwtable
define internal i32 @exp_pdu_data_src_ip_size(ptr noundef %0, ptr noundef %1) #1 {
  %3 = alloca ptr, align 8
  %4 = alloca ptr, align 8
  store ptr %0, ptr %3, align 8
  store ptr %1, ptr %4, align 8
  %5 = load ptr, ptr %3, align 8
  %6 = getelementptr inbounds nuw %struct._packet_info, ptr %5, i32 0, i32 14
  %7 = call i32 @exp_pdu_data_ip_size(ptr noundef %6)
  ret i32 %7
}