; Function Attrs: mustprogress nofree norecurse nosync nounwind null_pointer_is_valid sspstrong willreturn memory(argmem: read) uwtable
define internal range(i32 0, 21) i32 @exp_pdu_data_src_ip_size(ptr noundef readonly captures(none) %0, ptr readnone captures(none) %1) #3 {
  %3 = getelementptr inbounds nuw i8, ptr %0, i64 160
  %.val = load i32, ptr %3, align 8
  %switch.selectcmp.i = icmp eq i32 %.val, 3
  %switch.select.i = select i1 %switch.selectcmp.i, i32 20, i32 0
  %switch.selectcmp3.i = icmp eq i32 %.val, 2
  %switch.select4.i = select i1 %switch.selectcmp3.i, i32 8, i32 %switch.select.i
  ret i32 %switch.select4.i
}